target datalayout = "e-m:e-p270:32:32-p271:32:32-p272:64:64-i64:64-i128:128-f80:128-n8:16:32:64-S128"
target triple = "x86_64-pc-linux-gnu"

%struct.archive_entry = type { ptr, ptr, i32, %struct.aest, i32, %struct.archive_mstring, i64, i64, %struct.archive_mstring, %struct.archive_mstring, %struct.archive_mstring, %struct.archive_mstring, %struct.archive_mstring, i8, ptr, i64, %struct.ae_digest, %struct.archive_acl, ptr, ptr, ptr, ptr, ptr, [12 x i8], i32 }
%struct.aest = type { i64, i32, i64, i32, i64, i32, i64, i32, i64, i64, i32, i64, i64, i32, i64, i64, i64, i32, i64, i64, i64 }
%struct.archive_mstring = type { %struct.archive_string, %struct.archive_string, %struct.archive_wstring, %struct.archive_string, i32 }
%struct.archive_wstring = type { ptr, i64, i64 }
%struct.archive_string = type { ptr, i64, i64 }
%struct.ae_digest = type { [16 x i8], [20 x i8], [20 x i8], [32 x i8], [48 x i8], [64 x i8] }
%struct.archive_acl = type { i32, ptr, ptr, i32, ptr, ptr, i32 }

@.str = private unnamed_addr constant [10 x i8] c"No memory\00", align 1

; Function Attrs: nounwind uwtable
define dso_local i32 @archive_entry_update_pathname_utf8(ptr noundef %0, ptr noundef %1) #0 {
  %3 = alloca i32, align 4
  %4 = alloca ptr, align 8
  %5 = alloca ptr, align 8
  store ptr %0, ptr %4, align 8, !tbaa !4
  store ptr %1, ptr %5, align 8, !tbaa !67
  %6 = load ptr, ptr %4, align 8, !tbaa !4
  %7 = getelementptr inbounds nuw %struct.archive_entry, ptr %6, i32 0, i32 0
  %8 = load ptr, ptr %7, align 8, !tbaa !30
  %9 = load ptr, ptr %4, align 8, !tbaa !4
  %10 = getelementptr inbounds nuw %struct.archive_entry, ptr %9, i32 0, i32 10
  %11 = load ptr, ptr %5, align 8, !tbaa !67
  %12 = call i32 @archive_mstring_update_utf8(ptr noundef %8, ptr noundef %10, ptr noundef %11)
  %13 = icmp eq i32 %12, 0
  br i1 %13, label %14, label %15

14:                                               ; preds = %2
  store i32 1, ptr %3, align 4
  br label %21

15:                                               ; preds = %2
  %16 = call ptr @__errno_location() #17
  %17 = load i32, ptr %16, align 4, !tbaa !32
  %18 = icmp eq i32 %17, 12
  br i1 %18, label %19, label %20

19:                                               ; preds = %15
  call void @__archive_errx(i32 noundef 1, ptr noundef @.str) #18
  unreachable

20:                                               ; preds = %15
  store i32 0, ptr %3, align 4
  br label %21

21:                                               ; preds = %20, %14
  %22 = load i32, ptr %3, align 4
  ret i32 %22
}